ccopy_reg
_reconstructor
p0
(cencoding
PokemonShowdownEncoding
p1
c__builtin__
object
p2
Ntp3
Rp4
(dp5
S'name'
p6
S'smogtours-battlefactory-278339'
p7
sS'data_type'
p8
S'TRAINING'
p9
sS'labels'
p10
cnumpy.core.multiarray
_reconstruct
p11
(cnumpy
ndarray
p12
(I0
tp13
S'b'
p14
tp15
Rp16
(I1
(I0
I667
tp17
cnumpy
dtype
p18
(S'f8'
p19
I0
I1
tp20
Rp21
(I3
S'<'
p22
NNNI-1
I-1
I0
tp23
bI00
S''
p24
tp25
bsS'last_move_data'
p26
g11
(g12
(I0
tp27
g14
tp28
Rp29
(I1
(I0
I2
tp30
g21
I00
g24
tp31
bsS'num_turns'
p32
I0
sS'pokemon'
p33
(lp34
g11
(g12
(I0
tp35
g14
tp36
Rp37
(I1
(I0
I8
tp38
g21
I00
g24
tp39
bag11
(g12
(I0
tp40
g14
tp41
Rp42
(I1
(I0
I8
tp43
g21
I00
g24
tp44
bag11
(g12
(I0
tp45
g14
tp46
Rp47
(I1
(I0
I8
tp48
g21
I00
g24
tp49
bag11
(g12
(I0
tp50
g14
tp51
Rp52
(I1
(I0
I8
tp53
g21
I00
g24
tp54
bag11
(g12
(I0
tp55
g14
tp56
Rp57
(I1
(I0
I8
tp58
g21
I00
g24
tp59
bag11
(g12
(I0
tp60
g14
tp61
Rp62
(I1
(I0
I8
tp63
g21
I00
g24
tp64
bag11
(g12
(I0
tp65
g14
tp66
Rp67
(I1
(I0
I8
tp68
g21
I00
g24
tp69
bag11
(g12
(I0
tp70
g14
tp71
Rp72
(I1
(I0
I8
tp73
g21
I00
g24
tp74
bag11
(g12
(I0
tp75
g14
tp76
Rp77
(I1
(I0
I8
tp78
g21
I00
g24
tp79
bag11
(g12
(I0
tp80
g14
tp81
Rp82
(I1
(I0
I8
tp83
g21
I00
g24
tp84
bag11
(g12
(I0
tp85
g14
tp86
Rp87
(I1
(I0
I8
tp88
g21
I00
g24
tp89
bag11
(g12
(I0
tp90
g14
tp91
Rp92
(I1
(I0
I8
tp93
g21
I00
g24
tp94
basS'other_data'
p95
g11
(g12
(I0
tp96
g14
tp97
Rp98
(I1
(I0
I12
tp99
g21
I00
g24
tp100
bsb.