(dp0
S'name'
p1
S'smogtours-battlefactory-278338'
p2
sS'data_type'
p3
S'TRAINING'
p4
sS'labels'
p5
cnumpy.core.multiarray
_reconstruct
p6
(cnumpy
ndarray
p7
(I0
tp8
S'b'
p9
tp10
Rp11
(I1
(I0
I667
tp12
cnumpy
dtype
p13
(S'f8'
p14
I0
I1
tp15
Rp16
(I3
S'<'
p17
NNNI-1
I-1
I0
tp18
bI00
S''
p19
tp20
bsS'last_move_data'
p21
g6
(g7
(I0
tp22
g9
tp23
Rp24
(I1
(I0
I2
tp25
g16
I00
g19
tp26
bsS'num_turns'
p27
I0
sS'pokemon'
p28
(lp29
g6
(g7
(I0
tp30
g9
tp31
Rp32
(I1
(I0
I7
tp33
g16
I00
g19
tp34
bag6
(g7
(I0
tp35
g9
tp36
Rp37
(I1
(I0
I7
tp38
g16
I00
g19
tp39
bag6
(g7
(I0
tp40
g9
tp41
Rp42
(I1
(I0
I7
tp43
g16
I00
g19
tp44
bag6
(g7
(I0
tp45
g9
tp46
Rp47
(I1
(I0
I7
tp48
g16
I00
g19
tp49
bag6
(g7
(I0
tp50
g9
tp51
Rp52
(I1
(I0
I7
tp53
g16
I00
g19
tp54
bag6
(g7
(I0
tp55
g9
tp56
Rp57
(I1
(I0
I7
tp58
g16
I00
g19
tp59
bag6
(g7
(I0
tp60
g9
tp61
Rp62
(I1
(I0
I7
tp63
g16
I00
g19
tp64
bag6
(g7
(I0
tp65
g9
tp66
Rp67
(I1
(I0
I7
tp68
g16
I00
g19
tp69
bag6
(g7
(I0
tp70
g9
tp71
Rp72
(I1
(I0
I7
tp73
g16
I00
g19
tp74
bag6
(g7
(I0
tp75
g9
tp76
Rp77
(I1
(I0
I7
tp78
g16
I00
g19
tp79
bag6
(g7
(I0
tp80
g9
tp81
Rp82
(I1
(I0
I7
tp83
g16
I00
g19
tp84
bag6
(g7
(I0
tp85
g9
tp86
Rp87
(I1
(I0
I7
tp88
g16
I00
g19
tp89
basS'other_data'
p90
g6
(g7
(I0
tp91
g9
tp92
Rp93
(I1
(I0
I12
tp94
g16
I00
g19
tp95
bs.