(dp0
VChople Berry
p1
I670
sVPassho Berry
p2
I671
sVBanettite
p3
I672
sVBeedrillite
p4
I673
sVIron Plate
p5
I730
sVMeadow Plate
p6
I675
sVChoice Specs
p7
I676
sVOcca Berry
p8
I677
sVRocky Helmet
p9
I678
sVChesto Berry
p10
I679
sVLum Berry
p11
I680
sVSitrus Berry
p12
I681
sVSalamencite
p13
I732
sVSpooky Plate
p14
I683
sVScope Lens
p15
I741
sVGengarite
p16
I685
sVYache Berry
p17
I686
sVStone Plate
p18
I687
sVLatiasite
p19
I688
sVMental Herb
p20
I689
sVChoice Band
p21
I690
sVLife Orb
p22
I691
sVGarchompite
p23
I692
sVTyranitarite
p24
I693
sVGriseous Orb
p25
I694
sVLopunnite
p26
I695
sVShuca Berry
p27
I696
sVWeakness Policy
p28
I697
sVBlazikenite
p29
I698
sVBlack Glasses
p30
I699
sVGlalitite
p31
I700
sVCustap Berry
p32
I701
sVIcicle Plate
p33
I702
sVPixie Plate
p34
I703
sVCameruptite
p35
I704
sVZap Plate
p36
I705
sVPower Herb
p37
I706
sVVenusaurite
p38
I707
sVCharcoal
p39
I708
sVLatiosite
p40
I709
sVAssault Vest
p41
I710
sVLeftovers
p42
I711
sVAir Balloon
p43
I712
sVBlackGlasses
p44
I713
sVScizorite
p45
I714
sVSplash Plate
p46
I715
sVMewtwonite Y
p47
I769
sVKangaskhanite
p48
I717
sVMewtwonite X
p49
I770
sVAbomasite
p50
I719
sVMawilite
p51
I720
sVToxic Orb
p52
I721
sVPetaya Berry
p53
I722
sVBlue Orb
p54
I723
sVAudinite
p55
I724
sVDread Plate
p56
I725
sVAltarianite
p57
I726
sVColbur Berry
p58
I727
sVManectite
p59
I728
sVPinsirite
p60
I729
sVLucarionite
p61
I674
sVBlastoisinite
p62
I731
sVBlack Sludge
p63
I682
sVAlakazite
p64
I733
sVAerodactylite
p65
I734
sVMind Plate
p66
I735
sVFlame Orb
p67
I736
sS'<UNK>'
p68
I669
sVCharizardite X
p69
I737
sVCharizardite Y
p70
I738
sVMetagrossite
p71
I739
sVHeracronite
p72
I740
sVEviolite
p73
I765
sVLife orb
p74
I742
sVSoft Sand
p75
I743
sVGardevoirite
p76
I744
sVSoul Dew
p77
I745
sVSwampertite
p78
I746
sVAbsolite
p79
I747
sVFist Plate
p80
I748
sVDiancite
p81
I749
sVMedichamite
p82
I750
sVSpell Tag
p83
I751
sVToxic Plate
p84
I752
sVGyaradosite
p85
I753
sVHoundoominite
p86
I754
sVDraco Plate
p87
I755
sVShed Shell
p88
I756
sVEarth Plate
p89
I757
sVLight Clay
p90
I758
sVSalac Berry
p91
I759
sVSky Plate
p92
I760
sVFlame Plate
p93
I761
sVInsect Plate
p94
I762
sVAggronite
p95
I763
sVGalladite
p96
I764
sVSceptilite
p97
I684
sVRed Orb
p98
I766
sVWhite Herb
p99
I767
sVLiechi Berry
p100
I768
sVDragon Fang
p101
I716
sVFocus Sash
p102
I718
sVChoice Scarf
p103
I771
sVSilk Scarf
p104
I772
sVExpert Belt
p105
I773
sVSlowbronite
p106
I774
sVSharpedonite
p107
I775
sVSharp Beak
p108
I776
sVThick Club
p109
I777
sVAmpharosite
p110
I778
sVCoba Berry
p111
I779
sVSablenite
p112
I780
sVLustrous Orb
p113
I781
s.