(dp0
VCopycat
p1
I398
sVPrecipice Blades
p2
I399
sVRock Tomb
p3
I631
sVTailwind
p4
I400
sVShadow Claw
p5
I401
sVZen Headbutt
p6
I402
sVSignal Beam
p7
I541
sVSteel Wing
p8
I592
sVU-turn
p9
I660
sVDefog
p10
I640
sVDragon Claw
p11
I405
sVDiamond Storm
p12
I406
sVRock Blast
p13
I407
sVSeed Flare
p14
I408
sVPsyshock
p15
I409
sVFlame Charge
p16
I410
sVPower Whip
p17
I411
sVSynthesis
p18
I412
sVFire Blast
p19
I413
sVThunder Wave
p20
I414
sVAgility
p21
I415
sVReflect
p22
I626
sVLeaf Blade
p23
I417
sVBrave Bird
p24
I419
sVToxic Spikes
p25
I420
sVLeaf Storm
p26
I600
sVSpiky Shield
p27
I421
sVFinal Gambit
p28
I422
sVIron Head
p29
I585
sVIce Shard
p30
I424
sVIce Punch
p31
I425
sVQuick Attack
p32
I426
sVGiga Drain
p33
I427
sVRock Polish
p34
I428
sVHeal Bell
p35
I429
sVCoil
p36
I430
sVPsywave
p37
I431
sVEarthquake
p38
I432
sVCalm Mind
p39
I433
sVAqua Jet
p40
I490
sVPower-Up Punch
p41
I435
sVHone Claws
p42
I436
sVThunder Punch
p43
I545
sVBullet Punch
p44
I438
sVElectroweb
p45
I440
sVRefresh
p46
I442
sVClose Combat
p47
I443
sVKing's Shield
p48
I444
sVPain Split
p49
I445
sVPlay Rough
p50
I446
sVTrick Room
p51
I447
sVIce Fang
p52
I448
sVSleep Powder
p53
I509
sVDark Void
p54
I502
sVGlare
p55
I452
sVIron Tail
p56
I453
sVSpore
p57
I456
sVHaze
p58
I457
sVRest
p59
I458
sVSucker Punch
p60
I459
sVLeech Seed
p61
I460
sVHidden Power Electric
p62
I461
sVNasty Plot
p63
I462
sVFreeze-Dry
p64
I463
sVDragon Dance
p65
I464
sVMemento
p66
I633
sVMoonblast
p67
I466
sVEndeavor
p68
I468
sVRecover
p69
I469
sVHidden Power Ghost
p70
I470
sVSunny Day
p71
I471
sVScald
p72
I473
sVLava Plume
p73
I474
sVSolar Beam
p74
I475
sVStealth Rock
p75
I476
sVThunder
p76
I477
sVDazzling Gleam
p77
I478
sVHidden Power Bug
p78
I418
sVSpacial Rend
p79
I480
sVDual Chop
p80
I481
sVWake-Up Slap
p81
I450
sVHidden Power Fighting
p82
I404
sVSacred Fire
p83
I484
sVAcrobatics
p84
I485
sVBullet Seed
p85
I486
sVFlamethrower
p86
I487
sVEnergy Ball
p87
I488
sVHyper Voice
p88
I489
sVIcicle Spear
p89
I491
sVSoft-Boiled
p90
I637
sVEarth Power
p91
I493
sVPin Missile
p92
I494
sVCrabhammer
p93
I439
sVSnatch
p94
I496
sVWaterfall
p95
I497
sVDrain Punch
p96
I498
sVReversal
p97
I499
sVWish
p98
I639
sVDischarge
p99
I501
sVHidden Power Grass
p100
I451
sVX-Scissor
p101
I503
sVDark Pulse
p102
I533
sVCircle Throw
p103
I506
sVProtect
p104
I507
sVSpikes
p105
I508
sVSkill Swap
p106
I511
sVHeavy Slam
p107
I512
sVPerish Song
p108
I642
sVFacade
p109
I666
sVGunk Shot
p110
I515
sVAir Slash
p111
I643
sVIcy Wind
p112
I517
sVIcicle Crash
p113
I518
sVBelly Drum
p114
I519
sVV-create
p115
I520
sVAerial Ace
p116
I521
sVBulldoze
p117
I522
sVPsycho Shift
p118
I523
sVStored Power
p119
I524
sVAqua Tail
p120
I525
sVShadow Sneak
p121
I526
sVMorning Sun
p122
I527
sVNatural Gift
p123
I528
sVAncient Power
p124
I529
sVRock Slide
p125
I530
sVStun Spore
p126
I531
sVMeteor Mash
p127
I532
sVMegahorn
p128
I623
sVSwords Dance
p129
I534
sVWill-O-Wisp
p130
I536
sVEndure
p131
I647
sVPoison Jab
p132
I538
sVCross Poison
p133
I437
sVShift Gear
p134
I540
sVDragon Pulse
p135
I403
sVFocus Energy
p136
I472
sVGear Grind
p137
I544
sVHidden Power
p138
I455
sVHex
p139
I546
sVLow Kick
p140
I650
sVHidden Power Ground
p141
I548
sVFoul Play
p142
I549
sVRapid Spin
p143
I479
sVSleep Talk
p144
I551
sVMilk Drink
p145
I552
sS'<UNK>'
p146
I397
sVSurf
p147
I553
sVCrunch
p148
I554
sVDragon Ascent
p149
I555
sVGyro Ball
p150
I556
sVShell Smash
p151
I562
sVTaunt
p152
I558
sVRoost
p153
I559
sVDragon Tail
p154
I560
sVWood Hammer
p155
I542
sVYawn
p156
I557
sVFusion Flare
p157
I563
sVSwitcheroo
p158
I564
sVLovely Kiss
p159
I565
sVPayback
p160
I566
sVDraining Kiss
p161
I567
sVExplosion
p162
I651
sVChatter
p163
I416
sVBolt Strike
p164
I609
sVFlare Blitz
p165
I570
sVStruggle
p166
I535
sVHidden Power Rock
p167
I516
sVBoomburst
p168
I573
sVOrigin Pulse
p169
I655
sVRoar
p170
I574
sVRelic Song
p171
I575
sVQuiver Dance
p172
I576
sVSludge Bomb
p173
I577
sVFrost Breath
p174
I514
sVHydro Pump
p175
I495
sVForesight
p176
I449
sVBonemerang
p177
I580
sVDraco Meteor
p178
I581
sVBug Bite
p179
I582
sVRain Dance
p180
I583
sVShadow Punch
p181
I584
sVPursuit
p182
I629
sVMoonlight
p183
I644
sVDrill Run
p184
I423
sVWhirlwind
p185
I586
sVBlue Flare
p186
I587
sVStone Edge
p187
I589
sVBlizzard
p188
I590
sVAromatherapy
p189
I591
sVJudgment
p190
I568
sVHeat Wave
p191
I593
sVBaton Pass
p192
I646
sVAcid Armor
p193
I561
sVDynamic Punch
p194
I595
sVSeed Bomb
p195
I467
sVHammer Arm
p196
I597
sVNight Slash
p197
I598
sVFake Out
p198
I599
sVBulk Up
p199
I482
sVGrass Knot
p200
I601
sVJump Kick
p201
I571
sVWater Spout
p202
I603
sVFocus Blast
p203
I594
sVSuperpower
p204
I604
sVShadow Force
p205
I667
sVOverheat
p206
I605
sVHidden Power Ice
p207
I483
sVAura Sphere
p208
I602
sVMagic Coat
p209
I607
sVMuddy Water
p210
I608
sVPsychic
p211
I569
sVHurricane
p212
I610
sVHigh Jump Kick
p213
I617
sVWild Charge
p214
I612
sVLight Screen
p215
I613
sVSlack Off
p216
I661
sVHealing Wish
p217
I615
sVToxic
p218
I616
sVFiery Dance
p219
I505
sVExtreme Speed
p220
I618
sVFusion Bolt
p221
I619
sVGlaciate
p222
I620
sVThunderbolt
p223
I537
sVIce Beam
p224
I622
sVMagnet Rise
p225
I624
sVSky Attack
p226
I625
sVHead Smash
p227
I588
sVPsycho Boost
p228
I627
sVDisable
p229
I628
sVBrick Break
p230
I434
sVBody Slam
p231
I630
sVCurse
p232
I596
sVKnock Off
p233
I632
sVRock Climb
p234
I465
sVSuper Fang
p235
I634
sVMach Punch
p236
I635
sVNight Daze
p237
I636
sVPsystrike
p238
I492
sVHidden Power Fire
p239
I638
sVMean Look
p240
I500
sVSeismic Toss
p241
I504
sVFire Fang
p242
I641
sVSticky Web
p243
I513
sVHidden Power Water
p244
I543
sVShadow Ball
p245
I579
sVDestiny Bond
p246
I645
sVOblivion Wing
p247
I606
sVFire Punch
p248
I578
sVLunar Dance
p249
I648
sVHead Charge
p250
I649
sVVolt Switch
p251
I547
sVReturn
p252
I621
sVFocus Punch
p253
I652
sVDouble-Edge
p254
I653
sVEncore
p255
I654
sVTrick
p256
I510
sVBarrier
p257
I656
sVPsycho Cut
p258
I657
sVOutrage
p259
I550
sVBug Buzz
p260
I658
sVVacuum Wave
p261
I659
sVGeomancy
p262
I611
sVBounce
p263
I614
sVFlash Cannon
p264
I662
sVAvalanche
p265
I663
sVSecret Sword
p266
I664
sVTri Attack
p267
I572
sVHorn Leech
p268
I539
sVSludge Wave
p269
I665
sVTail Glow
p270
I441
sVRazor Shell
p271
I454
sVSubstitute
p272
I668
s.