(dp0
VFletchinder
p1
I1
sVDuosion
p2
I2
sVSwellow
p3
I3
sVPoliwrath
p4
I4
sVGliscor
p5
I43
sVCresselia
p6
I6
sVTangela
p7
I7
sVAbsol
p8
I8
sVAggron-Mega
p9
I9
sVSceptile
p10
I10
sVLandorus-Therian
p11
I11
sVKrookodile
p12
I12
sVVenusaur-Mega
p13
I13
sVTyranitar-Mega
p14
I14
sVSharpedo
p15
I15
sVKadabra
p16
I195
sVAggron
p17
I17
sVSlowbro
p18
I18
sVCelebi
p19
I20
sVAmpharos
p20
I21
sVOmastar
p21
I22
sVHeliolisk
p22
I23
sVBeedrill-Mega
p23
I24
sVHuntail
p24
I25
sVPiloswine
p25
I26
sVArceus-Dragon
p26
I27
sVGabite
p27
I343
sVArceus-Dark
p28
I29
sVRotom
p29
I30
sVCrawdaunt
p30
I31
sVCrobat
p31
I32
sVSwanna
p32
I33
sVNoivern
p33
I34
sVSkuntank
p34
I35
sVGothitelle
p35
I36
sVGarchomp-Mega
p36
I37
sVExploud
p37
I38
sVCharizard-Mega-X
p38
I39
sVCharizard-Mega-Y
p39
I40
sVKlang
p40
I41
sVVirizion
p41
I42
sVTornadus
p42
I5
sVMisdreavus
p43
I345
sVArceus-Electric
p44
I45
sVScizor-Mega
p45
I46
sVElectrode
p46
I74
sVEmpoleon
p47
I48
sVAlakazam
p48
I49
sVDragalge
p49
I50
sVArceus-Fairy
p50
I51
sVDarmanitan
p51
I52
sVReuniclus
p52
I53
sVDruddigon
p53
I54
sVZweilous
p54
I55
sVHoundoom-Mega
p55
I56
sVArceus-Ground
p56
I57
sVArceus-Poison
p57
I58
sVBreloom
p58
I59
sVDrifblim
p59
I60
sVAlomomola
p60
I61
sVRotom-Mow
p61
I62
sVMewtwo-Mega-X
p62
I63
sVMewtwo-Mega-Y
p63
I64
sVMetang
p64
I65
sVSimipour
p65
I66
sVTentacruel
p66
I67
sVLickilicky
p67
I68
sVDodrio
p68
I69
sVGoodra
p69
I70
sVSceptile-Mega
p70
I71
sVGourgeist-Small
p71
I72
sVFloatzel
p72
I73
sVZebstrika
p73
I47
sVGourgeist
p74
I75
sVSolrock
p75
I76
sVAegislash
p76
I77
sVLeavanny
p77
I78
sVHeracross-Mega
p78
I79
sVZoroark
p79
I80
sVJynx
p80
I81
sVGalvantula
p81
I82
sVHitmonchan
p82
I83
sVClefable
p83
I84
sVSigilyph
p84
I85
sVQwilfish
p85
I86
sVShaymin-Sky
p86
I87
sVLatios
p87
I88
sVLatios-Mega
p88
I89
sVClaydol
p89
I90
sVArceus-Bug
p90
I91
sVNinetales
p91
I92
sVAzumarill
p92
I93
sVGlalie
p93
I94
sVCharizard
p94
I95
sVJirachi
p95
I96
sVHydreigon
p96
I97
sVCarracosta
p97
I98
sVGallade
p98
I99
sVPrinplup
p99
I100
sVLatias
p100
I319
sVWeezing
p101
I101
sVSpiritomb
p102
I102
sVLiepard
p103
I103
sVSandslash
p104
I19
sVKangaskhan
p105
I105
sVMachamp
p106
I106
sVAltaria-Mega
p107
I107
sVAlakazam-Mega
p108
I108
sVGligar
p109
I109
sVExeggutor
p110
I266
sVVivillon
p111
I111
sVEelektross
p112
I112
sVDiancie
p113
I113
sVMesprit
p114
I114
sVBisharp
p115
I115
sVZangoose
p116
I116
sVKyurem
p117
I117
sVGroudon
p118
I118
sVFlorges
p119
I119
sVNidoqueen
p120
I120
sVAltaria
p121
I121
sVDeoxys
p122
I122
sVMeloetta
p123
I123
sVTogekiss
p124
I124
sVVenusaur
p125
I125
sVBlastoise
p126
I126
sVKlefki
p127
I127
sVGengar-Mega
p128
I128
sVMuk
p129
I129
sVGlalie-Mega
p130
I130
sVFerroseed
p131
I131
sVArceus-Rock
p132
I132
sVPawniard
p133
I133
sVDusknoir
p134
I134
sVBasculin
p135
I135
sVGranbull
p136
I136
sVKabutops
p137
I137
sVVenipede
p138
I138
sVSylveon
p139
I139
sVGardevoir
p140
I359
sVArceus-Fire
p141
I141
sVScyther
p142
I142
sVHonchkrow
p143
I143
sVArticuno
p144
I144
sVTogetic
p145
I145
sVGyarados
p146
I146
sVHeatran
p147
I147
sS'<UNK>'
p148
I0
sVHariyama
p149
I148
sVPalkia
p150
I149
sVSlowking
p151
I150
sVKyurem-White
p152
I151
sVLopunny
p153
I152
sVArceus-Steel
p154
I153
sVHawlucha
p155
I154
sVBraviary
p156
I155
sVSwampert-Mega
p157
I156
sVSmeargle
p158
I157
sVWhimsicott
p159
I158
sVBanette-Mega
p160
I159
sVMedicham
p161
I160
sVRotom-Frost
p162
I161
sVGolbat
p163
I162
sVGengar
p164
I163
sVPyroar
p165
I165
sVDialga
p166
I166
sVRotom-Fan
p167
I167
sVCrustle
p168
I168
sVWeavile
p169
I169
sVArceus-Psychic
p170
I170
sVKeldeo
p171
I171
sVManectric
p172
I172
sVRegisteel
p173
I287
sVXatu
p174
I174
sVDeoxys-Speed
p175
I175
sVAzelf
p176
I176
sVShuckle
p177
I177
sVDiancie-Mega
p178
I178
sVSeaking
p179
I179
sVTorterra
p180
I180
sVClawitzer
p181
I181
sVRotom-Heat
p182
I182
sVMalamar
p183
I183
sVEntei
p184
I184
sVArceus-Fighting
p185
I185
sVLopunny-Mega
p186
I186
sVMurkrow
p187
I187
sVSableye-Mega
p188
I188
sVYanmega
p189
I189
sVMawile
p190
I247
sVPorygon-Z
p191
I191
sVMandibuzz
p192
I192
sVVolcarona
p193
I193
sVArceus
p194
I194
sVStoutland
p195
I16
sVPurugly
p196
I196
sVUxie
p197
I197
sVBeedrill
p198
I198
sVRegirock
p199
I199
sVHitmonlee
p200
I200
sVGorebyss
p201
I201
sVCacturne
p202
I202
sVRaichu
p203
I203
sVMusharna
p204
I204
sVEmboar
p205
I205
sVBlaziken
p206
I206
sVRhydon
p207
I207
sVGenesect
p208
I208
sVGardevoir-Mega
p209
I209
sVSlurpuff
p210
I210
sVFerrothorn
p211
I211
sVMilotic
p212
I212
sVAerodactyl
p213
I213
sVBlastoise-Mega
p214
I214
sVManectric-Mega
p215
I215
sVAurorus
p216
I216
sVMantine
p217
I217
sVBlaziken-Mega
p218
I218
sVLeafeon
p219
I219
sVArcanine
p220
I220
sVMismagius
p221
I221
sVSnorlax
p222
I222
sVMagnezone
p223
I223
sVRoselia
p224
I224
sVRhyperior
p225
I225
sVGolem
p226
I226
sVPinsir
p227
I227
sVPangoro
p228
I228
sVBanette
p229
I229
sVSharpedo-Mega
p230
I230
sVSlowbro-Mega
p231
I231
sVTauros
p232
I232
sVRaikou
p233
I233
sVArbok
p234
I234
sVAbsol-Mega
p235
I235
sVPorygon2
p236
I236
sVMamoswine
p237
I237
sVChansey
p238
I238
sVInfernape
p239
I239
sVKyurem-Black
p240
I240
sVPolitoed
p241
I241
sVPrimeape
p242
I242
sVGreninja
p243
I243
sVRelicanth
p244
I244
sVSawsbuck
p245
I245
sVJolteon
p246
I246
sVArceus-Ice
p247
I248
sVGolduck
p248
I249
sVRotom-Wash
p249
I250
sVChesnaught
p250
I251
sVKangaskhan-Mega
p251
I252
sVUmbreon
p252
I253
sVMetagross-Mega
p253
I254
sVHeracross
p254
I255
sVFeraligatr
p255
I256
sVToxicroak
p256
I257
sVZekrom
p257
I315
sVVaporeon
p258
I259
sVSeismitoad
p259
I260
sVFroslass
p260
I261
sVAudino-Mega
p261
I262
sVKlinklang
p262
I263
sVTerrakion
p263
I264
sVConkeldurr
p264
I265
sVAudino
p265
I267
sVJumpluff
p266
I268
sVDrapion
p267
I269
sVProbopass
p268
I270
sVExcadrill
p269
I271
sVGurdurr
p270
I272
sVSawk
p271
I273
sVSamurott
p272
I274
sVThundurus
p273
I275
sVGroudon-Primal
p274
I276
sVSableye
p275
I277
sVDugtrio
p276
I278
sVAbomasnow-Mega
p277
I279
sVGolurk
p278
I280
sVScizor
p279
I281
sVZapdos
p280
I282
sVNinjask
p281
I283
sVCobalion
p282
I284
sVGrumpig
p283
I285
sVTornadus-Therian
p284
I286
sVChatot
p285
I173
sVFraxure
p286
I288
sVCamerupt
p287
I289
sVReshiram
p288
I290
sVMagmortar
p289
I291
sVAbomasnow
p290
I292
sVJellicent
p291
I293
sVMienshao
p292
I294
sVFlygon
p293
I295
sVEscavalier
p294
I296
sVSliggoo
p295
I297
sVHoundoom
p296
I298
sVLandorus
p297
I299
sVLugia
p298
I300
sVVileplume
p299
I301
sVClefairy
p300
I302
sVMagneton
p301
I303
sVManaphy
p302
I304
sVSkarmory
p303
I305
sVArceus-Water
p304
I306
sVArcheops
p305
I307
sVBronzong
p306
I308
sVMightyena
p307
I309
sVRayquaza
p308
I310
sVDiggersby
p309
I311
sVLatias-Mega
p310
I312
sVGarchomp
p311
I313
sVMawile-Mega
p312
I314
sVDragonite
p313
I258
sVScrafty
p314
I316
sVLilligant
p315
I317
sVDeoxys-Attack
p316
I318
sVBouffalant
p317
I164
sVLucario
p318
I320
sVRampardos
p319
I321
sVGallade-Mega
p320
I322
sVScolipede
p321
I323
sVSerperior
p322
I332
sVVullaby
p323
I325
sVVictini
p324
I326
sVStaraptor
p325
I327
sVGiratina
p326
I328
sVCloyster
p327
I329
sVGyarados-Mega
p328
I330
sVVibrava
p329
I331
sVArceus-Flying
p330
I324
sVSalamence
p331
I333
sVArceus-Ghost
p332
I334
sVGarbodor
p333
I335
sVMarowak
p334
I336
sVDarkrai
p335
I337
sVMew
p336
I338
sVHippowdon
p337
I339
sVBlissey
p338
I340
sVXerneas
p339
I341
sVAmpharos-Mega
p340
I342
sVMetagross
p341
I28
sVPinsir-Mega
p342
I344
sVLanturn
p343
I44
sVQuilladin
p344
I346
sVDelphox
p345
I347
sVPelipper
p346
I348
sVAvalugg
p347
I349
sVTalonflame
p348
I350
sVZygarde
p349
I351
sVMonferno
p350
I352
sVMr. Mime
p351
I353
sVBarbaracle
p352
I354
sVBeheeyem
p353
I355
sVYveltal
p354
I356
sVChandelure
p355
I357
sVCamerupt-Mega
p356
I358
sVHaunter
p357
I140
sVDeoxys-Defense
p358
I360
sVMedicham-Mega
p359
I361
sVSimisear
p360
I362
sVStunfisk
p361
I363
sVMewtwo
p362
I364
sVAromatisse
p363
I365
sVGiratina-Origin
p364
I366
sVKyogre-Primal
p365
I367
sVRoserade
p366
I368
sVAerodactyl-Mega
p367
I369
sVRapidash
p368
I370
sVHo-Oh
p369
I371
sVElectivire
p370
I372
sVSuicune
p371
I373
sVGourgeist-Super
p372
I104
sVDonphan
p373
I374
sVLucario-Mega
p374
I375
sVForretress
p375
I110
sVGastrodon
p376
I376
sVThundurus-Therian
p377
I377
sVShaymin
p378
I378
sVTyranitar
p379
I379
sVHaxorus
p380
I380
sVMiltank
p381
I381
sVAccelgor
p382
I382
sVHoopa
p383
I383
sVKyogre
p384
I384
sVArceus-Grass
p385
I385
sVShiftry
p386
I386
sVCryogonal
p387
I387
sVLudicolo
p388
I388
sVSimisage
p389
I190
sVRegice
p390
I389
sVArmaldo
p391
I390
sVEspeon
p392
I391
sVSwampert
p393
I392
sVSneasel
p394
I393
sVHitmontop
p395
I394
sVSalamence-Mega
p396
I395
sVKingdra
p397
I396
s.